target datalayout = "e-m:e-p270:32:32-p271:32:32-p272:64:64-i64:64-i128:128-f80:128-n8:16:32:64-S128"
target triple = "x86_64-pc-linux-gnu"

%struct.ctl_node_s = type { i8 }
%struct.ctl_named_node_s = type { %struct.ctl_node_s, ptr, i64, ptr, ptr }

@ctl_initialized = internal global i8 0, align 1
@super_root_node = internal constant [1 x { %struct.ctl_node_s, [7 x i8], ptr, i64, ptr, ptr }] [{ %struct.ctl_node_s, [7 x i8], ptr, i64, ptr, ptr } { %struct.ctl_node_s { i8 1 }, [7 x i8] zeroinitializer, ptr @.str.1, i64 13, ptr @root_node, ptr null }], align 16

; Function Attrs: alwaysinline nounwind uwtable
define internal ptr @tsd_tsdn(ptr noundef %0) #2 {
  %2 = alloca ptr, align 8
  store ptr %0, ptr %2, align 8, !tbaa !4
  %3 = load ptr, ptr %2, align 8, !tbaa !4
  ret ptr %3
}

; Function Attrs: nounwind uwtable
define hidden i32 @je_ctl_byname(ptr noundef %0, ptr noundef %1, ptr noundef %2, ptr noundef %3, ptr noundef %4, i64 noundef %5) #0 {
  %7 = alloca ptr, align 8
  %8 = alloca ptr, align 8
  %9 = alloca ptr, align 8
  %10 = alloca ptr, align 8
  %11 = alloca ptr, align 8
  %12 = alloca i64, align 8
  %13 = alloca i32, align 4
  %14 = alloca i64, align 8
  %15 = alloca [7 x i64], align 16
  %16 = alloca ptr, align 8
  store ptr %0, ptr %7, align 8, !tbaa !4
  store ptr %1, ptr %8, align 8, !tbaa !9
  store ptr %2, ptr %9, align 8, !tbaa !11
  store ptr %3, ptr %10, align 8, !tbaa !12
  store ptr %4, ptr %11, align 8, !tbaa !11
  store i64 %5, ptr %12, align 8, !tbaa !14
  call void @llvm.lifetime.start.p0(i64 4, ptr %13) #13
  call void @llvm.lifetime.start.p0(i64 8, ptr %14) #13
  call void @llvm.lifetime.start.p0(i64 56, ptr %15) #13
  call void @llvm.lifetime.start.p0(i64 8, ptr %16) #13
  %17 = load i8, ptr @ctl_initialized, align 1, !tbaa !16, !range !18, !noundef !19
  %18 = trunc i8 %17 to i1
  br i1 %18, label %23, label %19

19:                                               ; preds = %6
  %20 = load ptr, ptr %7, align 8, !tbaa !4
  %21 = call zeroext i1 @ctl_init(ptr noundef %20)
  br i1 %21, label %22, label %23

22:                                               ; preds = %19
  store i32 11, ptr %13, align 4, !tbaa !20
  br label %54

23:                                               ; preds = %19, %6
  store i64 7, ptr %14, align 8, !tbaa !14
  %24 = load ptr, ptr %7, align 8, !tbaa !4
  %25 = call ptr @tsd_tsdn(ptr noundef %24)
  %26 = load ptr, ptr %8, align 8, !tbaa !9
  %27 = getelementptr inbounds [7 x i64], ptr %15, i64 0, i64 0
  %28 = call i32 @ctl_lookup(ptr noundef %25, ptr noundef @super_root_node, ptr noundef %26, ptr noundef %16, ptr noundef %27, ptr noundef %14)
  store i32 %28, ptr %13, align 4, !tbaa !20
  %29 = load i32, ptr %13, align 4, !tbaa !20
  %30 = icmp ne i32 %29, 0
  br i1 %30, label %31, label %32

31:                                               ; preds = %23
  br label %54

32:                                               ; preds = %23
  %33 = load ptr, ptr %16, align 8, !tbaa !22
  %34 = icmp ne ptr %33, null
  br i1 %34, label %35, label %52

35:                                               ; preds = %32
  %36 = load ptr, ptr %16, align 8, !tbaa !22
  %37 = getelementptr inbounds nuw %struct.ctl_named_node_s, ptr %36, i32 0, i32 4
  %38 = load ptr, ptr %37, align 8, !tbaa !24
  %39 = icmp ne ptr %38, null
  br i1 %39, label %40, label %52

40:                                               ; preds = %35
  %41 = load ptr, ptr %16, align 8, !tbaa !22
  %42 = getelementptr inbounds nuw %struct.ctl_named_node_s, ptr %41, i32 0, i32 4
  %43 = load ptr, ptr %42, align 8, !tbaa !24
  %44 = load ptr, ptr %7, align 8, !tbaa !4
  %45 = getelementptr inbounds [7 x i64], ptr %15, i64 0, i64 0
  %46 = load i64, ptr %14, align 8, !tbaa !14
  %47 = load ptr, ptr %9, align 8, !tbaa !11
  %48 = load ptr, ptr %10, align 8, !tbaa !12
  %49 = load ptr, ptr %11, align 8, !tbaa !11
  %50 = load i64, ptr %12, align 8, !tbaa !14
  %51 = call i32 %43(ptr noundef %44, ptr noundef %45, i64 noundef %46, ptr noundef %47, ptr noundef %48, ptr noundef %49, i64 noundef %50)
  store i32 %51, ptr %13, align 4, !tbaa !20
  br label %53

52:                                               ; preds = %35, %32
  store i32 2, ptr %13, align 4, !tbaa !20
  br label %53

53:                                               ; preds = %52, %40
  br label %54

54:                                               ; preds = %53, %31, %22
  %55 = load i32, ptr %13, align 4, !tbaa !20
  call void @llvm.lifetime.end.p0(i64 8, ptr %16) #13
  call void @llvm.lifetime.end.p0(i64 56, ptr %15) #13
  call void @llvm.lifetime.end.p0(i64 8, ptr %14) #13
  call void @llvm.lifetime.end.p0(i64 4, ptr %13) #13
  ret i32 %55
}